; Function Attrs: mustprogress nounwind uwtable
define hidden noundef ptr @_ZN15SignatureStream14as_java_mirrorE6HandleS0_NS_11FailureModeEP10JavaThread(ptr nocapture noundef nonnull align 8 dereferenceable(48) %0, ptr %1, ptr %2, i32 noundef %3, ptr noundef %4) local_unnamed_addr #1 align 2 {
  %6 = getelementptr inbounds i8, ptr %0, i64 24
  %7 = load i8, ptr %6, align 8
  %8 = and i8 %7, -2
  %or.cond.i.i = icmp eq i8 %8, 12
  br i1 %or.cond.i.i, label %11, label %9

9:                                                ; preds = %5
  %10 = tail call noundef ptr @_ZN8Universe11java_mirrorE9BasicType(i8 noundef zeroext %7) #14
  br label %_ZNK5Klass11java_mirrorEv.exit

11:                                               ; preds = %5
  %12 = tail call noundef ptr @_ZN15SignatureStream11find_symbolEv(ptr noundef nonnull align 8 dereferenceable(48) %0)
  switch i32 %3, label %20 [
    i32 0, label %13
    i32 2, label %17
  ]

13:                                               ; preds = %11
  %14 = tail call noundef ptr @_ZN16SystemDictionary15resolve_or_nullEP6Symbol6HandleS2_P10JavaThread(ptr noundef %12, ptr %1, ptr %2, ptr noundef %4) #14
  %15 = getelementptr inbounds i8, ptr %4, i64 8
  %16 = load ptr, ptr %15, align 8
  %.not.i = icmp eq ptr %16, null
  br i1 %.not.i, label %_ZN15SignatureStream8as_klassE6HandleS0_NS_11FailureModeEP10JavaThread.exit, label %_ZNK5Klass11java_mirrorEv.exit

17:                                               ; preds = %11
  %18 = tail call noundef ptr @_ZN16SystemDictionary19find_instance_klassEP6ThreadP6Symbol6HandleS4_(ptr noundef %4, ptr noundef %12, ptr %1, ptr %2) #14
  %.phi.trans.insert = getelementptr inbounds i8, ptr %4, i64 8
  %.pre = load ptr, ptr %.phi.trans.insert, align 8
  %19 = icmp ne ptr %.pre, null
  br label %_ZN15SignatureStream8as_klassE6HandleS0_NS_11FailureModeEP10JavaThread.exit

20:                                               ; preds = %11
  %21 = icmp eq i32 %3, 1
  %22 = tail call noundef ptr @_ZN16SystemDictionary15resolve_or_failEP6Symbol6HandleS2_bP10JavaThread(ptr noundef %12, ptr %1, ptr %2, i1 noundef zeroext %21, ptr noundef %4) #14
  %23 = getelementptr inbounds i8, ptr %4, i64 8
  %24 = load ptr, ptr %23, align 8
  %.not24.i = icmp eq ptr %24, null
  br i1 %.not24.i, label %_ZN15SignatureStream8as_klassE6HandleS0_NS_11FailureModeEP10JavaThread.exit, label %_ZNK5Klass11java_mirrorEv.exit

_ZN15SignatureStream8as_klassE6HandleS0_NS_11FailureModeEP10JavaThread.exit: ; preds = %13, %20, %17
  %25 = phi i1 [ %19, %17 ], [ false, %13 ], [ false, %20 ]
  %.0.i = phi ptr [ %18, %17 ], [ %14, %13 ], [ %22, %20 ]
  %26 = icmp eq ptr %.0.i, null
  %or.cond = or i1 %26, %25
  br i1 %or.cond, label %_ZNK5Klass11java_mirrorEv.exit, label %27

27:                                               ; preds = %_ZN15SignatureStream8as_klassE6HandleS0_NS_11FailureModeEP10JavaThread.exit
  %28 = getelementptr inbounds i8, ptr %.0.i, i64 112
  %29 = load ptr, ptr %28, align 8
  %30 = icmp eq ptr %29, null
  br i1 %30, label %_ZNK5Klass11java_mirrorEv.exit, label %31

31:                                               ; preds = %27
  %32 = load ptr, ptr @_ZN14AccessInternal15RuntimeDispatchILm548932EP7oopDescLNS_11BarrierTypeE2EE10_load_funcE, align 8
  %33 = tail call noundef ptr %32(ptr noundef nonnull %29) #14
  br label %_ZNK5Klass11java_mirrorEv.exit

_ZNK5Klass11java_mirrorEv.exit:                   ; preds = %20, %13, %31, %27, %_ZN15SignatureStream8as_klassE6HandleS0_NS_11FailureModeEP10JavaThread.exit, %9
  %.0 = phi ptr [ %10, %9 ], [ null, %_ZN15SignatureStream8as_klassE6HandleS0_NS_11FailureModeEP10JavaThread.exit ], [ %33, %31 ], [ null, %27 ], [ null, %13 ], [ null, %20 ]
  ret ptr %.0
}